target datalayout = "e-m:e-p270:32:32-p271:32:32-p272:64:64-i64:64-i128:128-f80:128-n8:16:32:64-S128"
target triple = "x86_64-pc-linux-gnu"

%struct.nameData = type { [64 x i8] }
%struct.RelationData = type { %struct.RelFileLocator, ptr, i32, i32, i8, i8, i8, i8, i8, i32, i32, i32, i32, ptr, ptr, i32, %struct.LockInfoData, ptr, ptr, ptr, ptr, ptr, i8, ptr, ptr, ptr, ptr, ptr, ptr, i32, ptr, i8, ptr, ptr, i32, i8, i32, ptr, i8, ptr, ptr, ptr, ptr, ptr, ptr, ptr, i32, ptr, ptr, ptr, ptr, ptr, ptr, ptr, ptr, ptr, ptr, ptr, ptr, ptr, ptr, ptr, ptr, ptr, ptr, ptr, i32, i8, ptr }
%struct.RelFileLocator = type { i32, i32, i32 }
%struct.LockInfoData = type { %struct.LockRelId }
%struct.LockRelId = type { i32, i32 }
%struct.FormData_pg_constraint = type { i32, %struct.nameData, i32, i8, i8, i8, i8, i8, i32, i32, i32, i32, i32, i8, i8, i8, i8, i16, i8, i8 }
%struct.HeapTupleData = type { i32, %struct.ItemPointerData, i32, ptr }
%struct.ItemPointerData = type { %struct.BlockIdData, i16 }
%struct.BlockIdData = type { i16, i16 }
%struct.HeapTupleHeaderData = type { %union.anon, %struct.ItemPointerData, i16, i16, i8, [0 x i8] }
%union.anon = type { %struct.HeapTupleFields }
%struct.HeapTupleFields = type { i32, i32, %union.anon.0 }
%union.anon.0 = type { i32 }
%struct.FormData_pg_class = type { i32, %struct.nameData, i32, i32, i32, i32, i32, i32, i32, i32, float, i32, i32, i8, i8, i8, i8, i16, i16, i8, i8, i8, i8, i8, i8, i8, i8, i32, i32, i32 }

@.str.2 = private unnamed_addr constant [16 x i8] c"pg_constraint.c\00", align 1
@.str.5 = private unnamed_addr constant [38 x i8] c"cache lookup failed for constraint %u\00", align 1
@__func__.RemoveConstraintById = private unnamed_addr constant [21 x i8] c"RemoveConstraintById\00", align 1
@.str.6 = private unnamed_addr constant [36 x i8] c"cache lookup failed for relation %u\00", align 1
@.str.7 = private unnamed_addr constant [32 x i8] c"relation \22%s\22 has relchecks = 0\00", align 1
@.str.8 = private unnamed_addr constant [37 x i8] c"constraint %u is not of a known type\00", align 1

; Function Attrs: inlinehint nounwind uwtable
define internal ptr @GETSTRUCT(ptr noundef %0) #3 {
  %2 = alloca ptr, align 8
  store ptr %0, ptr %2, align 8
  %3 = load ptr, ptr %2, align 8
  %4 = getelementptr inbounds nuw %struct.HeapTupleData, ptr %3, i32 0, i32 3
  %5 = load ptr, ptr %4, align 8
  %6 = load ptr, ptr %2, align 8
  %7 = getelementptr inbounds nuw %struct.HeapTupleData, ptr %6, i32 0, i32 3
  %8 = load ptr, ptr %7, align 8
  %9 = getelementptr inbounds nuw %struct.HeapTupleHeaderData, ptr %8, i32 0, i32 4
  %10 = load i8, ptr %9, align 2
  %11 = zext i8 %10 to i32
  %12 = sext i32 %11 to i64
  %13 = getelementptr inbounds i8, ptr %5, i64 %12
  ret ptr %13
}

; Function Attrs: inlinehint nounwind uwtable
define internal i64 @ObjectIdGetDatum(i32 noundef %0) #3 {
  %2 = alloca i32, align 4
  store i32 %0, ptr %2, align 4
  %3 = load i32, ptr %2, align 4
  %4 = zext i32 %3 to i64
  ret i64 %4
}

; Function Attrs: nounwind uwtable
define dso_local void @RemoveConstraintById(i32 noundef %0) #0 {
  %2 = alloca i32, align 4
  %3 = alloca ptr, align 8
  %4 = alloca ptr, align 8
  %5 = alloca ptr, align 8
  %6 = alloca ptr, align 8
  %7 = alloca ptr, align 8
  %8 = alloca ptr, align 8
  %9 = alloca ptr, align 8
  store i32 %0, ptr %2, align 4
  call void @llvm.lifetime.start.p0(i64 8, ptr %3) #9
  call void @llvm.lifetime.start.p0(i64 8, ptr %4) #9
  call void @llvm.lifetime.start.p0(i64 8, ptr %5) #9
  %10 = call ptr @table_open(i32 noundef 2606, i32 noundef 3)
  store ptr %10, ptr %3, align 8
  %11 = load i32, ptr %2, align 4
  %12 = call i64 @ObjectIdGetDatum(i32 noundef %11)
  %13 = call ptr @SearchSysCache1(i32 noundef 19, i64 noundef %12)
  store ptr %13, ptr %4, align 8
  %14 = load ptr, ptr %4, align 8
  %15 = icmp ne ptr %14, null
  br i1 %15, label %28, label %16

16:                                               ; preds = %1
  br label %17

17:                                               ; preds = %16
  br i1 true, label %18, label %20

18:                                               ; preds = %17
  %19 = call zeroext i1 @errstart_cold(i32 noundef 21, ptr noundef null) #11
  br i1 %19, label %22, label %25

20:                                               ; preds = %17
  %21 = call zeroext i1 @errstart(i32 noundef 21, ptr noundef null)
  br i1 %21, label %22, label %25

22:                                               ; preds = %20, %18
  %23 = load i32, ptr %2, align 4
  %24 = call i32 (ptr, ...) @errmsg_internal(ptr noundef @.str.5, i32 noundef %23)
  call void @errfinish(ptr noundef @.str.2, i32 noundef 881, ptr noundef @__func__.RemoveConstraintById)
  br label %25

25:                                               ; preds = %22, %20, %18
  unreachable

26:                                               ; No predecessors!
  br label %27

27:                                               ; preds = %26
  br label %28

28:                                               ; preds = %27, %1
  %29 = load ptr, ptr %4, align 8
  %30 = call ptr @GETSTRUCT(ptr noundef %29)
  store ptr %30, ptr %5, align 8
  %31 = load ptr, ptr %5, align 8
  %32 = getelementptr inbounds nuw %struct.FormData_pg_constraint, ptr %31, i32 0, i32 8
  %33 = load i32, ptr %32, align 4
  %34 = icmp ne i32 %33, 0
  br i1 %34, label %35, label %106

35:                                               ; preds = %28
  call void @llvm.lifetime.start.p0(i64 8, ptr %6) #9
  %36 = load ptr, ptr %5, align 8
  %37 = getelementptr inbounds nuw %struct.FormData_pg_constraint, ptr %36, i32 0, i32 8
  %38 = load i32, ptr %37, align 4
  %39 = call ptr @table_open(i32 noundef %38, i32 noundef 8)
  store ptr %39, ptr %6, align 8
  %40 = load ptr, ptr %5, align 8
  %41 = getelementptr inbounds nuw %struct.FormData_pg_constraint, ptr %40, i32 0, i32 3
  %42 = load i8, ptr %41, align 4
  %43 = sext i8 %42 to i32
  %44 = icmp eq i32 %43, 99
  br i1 %44, label %45, label %104

45:                                               ; preds = %35
  call void @llvm.lifetime.start.p0(i64 8, ptr %7) #9
  call void @llvm.lifetime.start.p0(i64 8, ptr %8) #9
  call void @llvm.lifetime.start.p0(i64 8, ptr %9) #9
  %46 = call ptr @table_open(i32 noundef 1259, i32 noundef 3)
  store ptr %46, ptr %7, align 8
  %47 = load ptr, ptr %5, align 8
  %48 = getelementptr inbounds nuw %struct.FormData_pg_constraint, ptr %47, i32 0, i32 8
  %49 = load i32, ptr %48, align 4
  %50 = call i64 @ObjectIdGetDatum(i32 noundef %49)
  %51 = call ptr @SearchSysCacheCopy(i32 noundef 57, i64 noundef %50, i64 noundef 0, i64 noundef 0, i64 noundef 0)
  store ptr %51, ptr %8, align 8
  %52 = load ptr, ptr %8, align 8
  %53 = icmp ne ptr %52, null
  br i1 %53, label %68, label %54

54:                                               ; preds = %45
  br label %55

55:                                               ; preds = %54
  br i1 true, label %56, label %58

56:                                               ; preds = %55
  %57 = call zeroext i1 @errstart_cold(i32 noundef 21, ptr noundef null) #11
  br i1 %57, label %60, label %65

58:                                               ; preds = %55
  %59 = call zeroext i1 @errstart(i32 noundef 21, ptr noundef null)
  br i1 %59, label %60, label %65

60:                                               ; preds = %58, %56
  %61 = load ptr, ptr %5, align 8
  %62 = getelementptr inbounds nuw %struct.FormData_pg_constraint, ptr %61, i32 0, i32 8
  %63 = load i32, ptr %62, align 4
  %64 = call i32 (ptr, ...) @errmsg_internal(ptr noundef @.str.6, i32 noundef %63)
  call void @errfinish(ptr noundef @.str.2, i32 noundef 913, ptr noundef @__func__.RemoveConstraintById)
  br label %65

65:                                               ; preds = %60, %58, %56
  unreachable

66:                                               ; No predecessors!
  br label %67

67:                                               ; preds = %66
  br label %68

68:                                               ; preds = %67, %45
  %69 = load ptr, ptr %8, align 8
  %70 = call ptr @GETSTRUCT(ptr noundef %69)
  store ptr %70, ptr %9, align 8
  %71 = load ptr, ptr %9, align 8
  %72 = getelementptr inbounds nuw %struct.FormData_pg_class, ptr %71, i32 0, i32 18
  %73 = load i16, ptr %72, align 2
  %74 = sext i16 %73 to i32
  %75 = icmp eq i32 %74, 0
  br i1 %75, label %76, label %93

76:                                               ; preds = %68
  br label %77

77:                                               ; preds = %76
  br i1 true, label %78, label %80

78:                                               ; preds = %77
  %79 = call zeroext i1 @errstart_cold(i32 noundef 21, ptr noundef null) #11
  br i1 %79, label %82, label %90

80:                                               ; preds = %77
  %81 = call zeroext i1 @errstart(i32 noundef 21, ptr noundef null)
  br i1 %81, label %82, label %90

82:                                               ; preds = %80, %78
  %83 = load ptr, ptr %6, align 8
  %84 = getelementptr inbounds nuw %struct.RelationData, ptr %83, i32 0, i32 13
  %85 = load ptr, ptr %84, align 8
  %86 = getelementptr inbounds nuw %struct.FormData_pg_class, ptr %85, i32 0, i32 1
  %87 = getelementptr inbounds nuw %struct.nameData, ptr %86, i32 0, i32 0
  %88 = getelementptr inbounds [64 x i8], ptr %87, i64 0, i64 0
  %89 = call i32 (ptr, ...) @errmsg_internal(ptr noundef @.str.7, ptr noundef %88)
  call void @errfinish(ptr noundef @.str.2, i32 noundef 918, ptr noundef @__func__.RemoveConstraintById)
  br label %90

90:                                               ; preds = %82, %80, %78
  unreachable

91:                                               ; No predecessors!
  br label %92

92:                                               ; preds = %91
  br label %93

93:                                               ; preds = %92, %68
  %94 = load ptr, ptr %9, align 8
  %95 = getelementptr inbounds nuw %struct.FormData_pg_class, ptr %94, i32 0, i32 18
  %96 = load i16, ptr %95, align 2
  %97 = add i16 %96, -1
  store i16 %97, ptr %95, align 2
  %98 = load ptr, ptr %7, align 8
  %99 = load ptr, ptr %8, align 8
  %100 = getelementptr inbounds nuw %struct.HeapTupleData, ptr %99, i32 0, i32 1
  %101 = load ptr, ptr %8, align 8
  call void @CatalogTupleUpdate(ptr noundef %98, ptr noundef %100, ptr noundef %101)
  %102 = load ptr, ptr %8, align 8
  call void @heap_freetuple(ptr noundef %102)
  %103 = load ptr, ptr %7, align 8
  call void @table_close(ptr noundef %103, i32 noundef 3)
  call void @llvm.lifetime.end.p0(i64 8, ptr %9) #9
  call void @llvm.lifetime.end.p0(i64 8, ptr %8) #9
  call void @llvm.lifetime.end.p0(i64 8, ptr %7) #9
  br label %104

104:                                              ; preds = %93, %35
  %105 = load ptr, ptr %6, align 8
  call void @table_close(ptr noundef %105, i32 noundef 0)
  call void @llvm.lifetime.end.p0(i64 8, ptr %6) #9
  br label %125

106:                                              ; preds = %28
  %107 = load ptr, ptr %5, align 8
  %108 = getelementptr inbounds nuw %struct.FormData_pg_constraint, ptr %107, i32 0, i32 9
  %109 = load i32, ptr %108, align 4
  %110 = icmp ne i32 %109, 0
  br i1 %110, label %111, label %112

111:                                              ; preds = %106
  br label %124

112:                                              ; preds = %106
  br label %113

113:                                              ; preds = %112
  br i1 true, label %114, label %116

114:                                              ; preds = %113
  %115 = call zeroext i1 @errstart_cold(i32 noundef 21, ptr noundef null) #11
  br i1 %115, label %118, label %121

116:                                              ; preds = %113
  %117 = call zeroext i1 @errstart(i32 noundef 21, ptr noundef null)
  br i1 %117, label %118, label %121

118:                                              ; preds = %116, %114
  %119 = load i32, ptr %2, align 4
  %120 = call i32 (ptr, ...) @errmsg_internal(ptr noundef @.str.8, i32 noundef %119)
  call void @errfinish(ptr noundef @.str.2, i32 noundef 941, ptr noundef @__func__.RemoveConstraintById)
  br label %121

121:                                              ; preds = %118, %116, %114
  unreachable

122:                                              ; No predecessors!
  br label %123

123:                                              ; preds = %122
  br label %124

124:                                              ; preds = %123, %111
  br label %125

125:                                              ; preds = %124, %104
  %126 = load ptr, ptr %3, align 8
  %127 = load ptr, ptr %4, align 8
  %128 = getelementptr inbounds nuw %struct.HeapTupleData, ptr %127, i32 0, i32 1
  call void @CatalogTupleDelete(ptr noundef %126, ptr noundef %128)
  %129 = load ptr, ptr %4, align 8
  call void @ReleaseSysCache(ptr noundef %129)
  %130 = load ptr, ptr %3, align 8
  call void @table_close(ptr noundef %130, i32 noundef 3)
  call void @llvm.lifetime.end.p0(i64 8, ptr %5) #9
  call void @llvm.lifetime.end.p0(i64 8, ptr %4) #9
  call void @llvm.lifetime.end.p0(i64 8, ptr %3) #9
  ret void
}