; Function Attrs: nounwind uwtable
define dso_local void @RemoveConstraintById(i32 noundef %0) local_unnamed_addr #0 {
  %2 = tail call ptr @table_open(i32 noundef 2606, i32 noundef 3) #12
  %3 = zext i32 %0 to i64
  %4 = tail call ptr @SearchSysCache1(i32 noundef 19, i64 noundef %3) #12
  %.not = icmp eq ptr %4, null
  br i1 %.not, label %5, label %8

5:                                                ; preds = %1
  %6 = tail call zeroext i1 @errstart_cold(i32 noundef 21, ptr noundef null) #14
  tail call void @llvm.assume(i1 %6)
  %7 = tail call i32 (ptr, ...) @errmsg_internal(ptr noundef nonnull @.str.5, i32 noundef %0) #12
  tail call void @errfinish(ptr noundef nonnull @.str.2, i32 noundef 881, ptr noundef nonnull @__func__.RemoveConstraintById) #12
  unreachable

8:                                                ; preds = %1
  %9 = getelementptr i8, ptr %4, i64 16
  %.val30 = load ptr, ptr %9, align 8
  %10 = getelementptr inbounds nuw i8, ptr %.val30, i64 22
  %11 = load i8, ptr %10, align 2
  %12 = zext i8 %11 to i64
  %13 = getelementptr inbounds nuw i8, ptr %.val30, i64 %12
  %14 = getelementptr inbounds nuw i8, ptr %13, i64 80
  %15 = load i32, ptr %14, align 4
  %.not27 = icmp eq i32 %15, 0
  br i1 %.not27, label %49, label %16

16:                                               ; preds = %8
  %17 = tail call ptr @table_open(i32 noundef %15, i32 noundef 8) #12
  %18 = getelementptr inbounds nuw i8, ptr %13, i64 72
  %19 = load i8, ptr %18, align 4
  %20 = icmp eq i8 %19, 99
  br i1 %20, label %21, label %48

21:                                               ; preds = %16
  %22 = tail call ptr @table_open(i32 noundef 1259, i32 noundef 3) #12
  %23 = load i32, ptr %14, align 4
  %24 = zext i32 %23 to i64
  %25 = tail call ptr @SearchSysCacheCopy(i32 noundef 57, i64 noundef %24, i64 noundef 0, i64 noundef 0, i64 noundef 0) #12
  %.not29 = icmp eq ptr %25, null
  br i1 %.not29, label %26, label %30

26:                                               ; preds = %21
  %27 = tail call zeroext i1 @errstart_cold(i32 noundef 21, ptr noundef null) #14
  tail call void @llvm.assume(i1 %27)
  %28 = load i32, ptr %14, align 4
  %29 = tail call i32 (ptr, ...) @errmsg_internal(ptr noundef nonnull @.str.6, i32 noundef %28) #12
  tail call void @errfinish(ptr noundef nonnull @.str.2, i32 noundef 913, ptr noundef nonnull @__func__.RemoveConstraintById) #12
  unreachable

30:                                               ; preds = %21
  %31 = getelementptr i8, ptr %25, i64 16
  %.val = load ptr, ptr %31, align 8
  %32 = getelementptr inbounds nuw i8, ptr %.val, i64 22
  %33 = load i8, ptr %32, align 2
  %34 = zext i8 %33 to i64
  %35 = getelementptr inbounds nuw i8, ptr %.val, i64 %34
  %36 = getelementptr inbounds nuw i8, ptr %35, i64 118
  %37 = load i16, ptr %36, align 2
  %38 = icmp eq i16 %37, 0
  br i1 %38, label %39, label %45

39:                                               ; preds = %30
  %40 = tail call zeroext i1 @errstart_cold(i32 noundef 21, ptr noundef null) #14
  tail call void @llvm.assume(i1 %40)
  %41 = getelementptr inbounds nuw i8, ptr %17, i64 56
  %42 = load ptr, ptr %41, align 8
  %43 = getelementptr inbounds nuw i8, ptr %42, i64 4
  %44 = tail call i32 (ptr, ...) @errmsg_internal(ptr noundef nonnull @.str.7, ptr noundef nonnull %43) #12
  tail call void @errfinish(ptr noundef nonnull @.str.2, i32 noundef 918, ptr noundef nonnull @__func__.RemoveConstraintById) #12
  unreachable

45:                                               ; preds = %30
  %46 = add i16 %37, -1
  store i16 %46, ptr %36, align 2
  %47 = getelementptr inbounds nuw i8, ptr %25, i64 4
  tail call void @CatalogTupleUpdate(ptr noundef %22, ptr noundef nonnull %47, ptr noundef nonnull %25) #12
  tail call void @heap_freetuple(ptr noundef nonnull %25) #12
  tail call void @table_close(ptr noundef %22, i32 noundef 3) #12
  br label %48

48:                                               ; preds = %45, %16
  tail call void @table_close(ptr noundef %17, i32 noundef 0) #12
  br label %55

49:                                               ; preds = %8
  %50 = getelementptr inbounds nuw i8, ptr %13, i64 84
  %51 = load i32, ptr %50, align 4
  %.not28 = icmp eq i32 %51, 0
  br i1 %.not28, label %52, label %55

52:                                               ; preds = %49
  %53 = tail call zeroext i1 @errstart_cold(i32 noundef 21, ptr noundef null) #14
  tail call void @llvm.assume(i1 %53)
  %54 = tail call i32 (ptr, ...) @errmsg_internal(ptr noundef nonnull @.str.8, i32 noundef %0) #12
  tail call void @errfinish(ptr noundef nonnull @.str.2, i32 noundef 941, ptr noundef nonnull @__func__.RemoveConstraintById) #12
  unreachable

55:                                               ; preds = %49, %48
  %56 = getelementptr inbounds nuw i8, ptr %4, i64 4
  tail call void @CatalogTupleDelete(ptr noundef %2, ptr noundef nonnull %56) #12
  tail call void @ReleaseSysCache(ptr noundef nonnull %4) #12
  tail call void @table_close(ptr noundef %2, i32 noundef 3) #12
  ret void
}